target datalayout = "e-m:e-p270:32:32-p271:32:32-p272:64:64-i64:64-i128:128-f80:128-n8:16:32:64-S128"
target triple = "x86_64-pc-linux-gnu"

%struct._spdu_signal_list_uat = type { i32, i32, i32, ptr, ptr, ptr, i8, i32, i32, ptr, ptr, i8, i32, i8, i8, i8, i8 }

@.str.235 = private unnamed_addr constant [3 x i8] c"%d\00", align 1

; Function Attrs: null_pointer_is_valid sspstrong uwtable
define internal void @spdu_signal_list_multiplex_value_only_tostr_cb(ptr noundef %0, ptr noundef %1, ptr noundef %2, ptr noundef %3, ptr noundef %4) #0 {
  %6 = alloca ptr, align 8
  %7 = alloca ptr, align 8
  %8 = alloca ptr, align 8
  %9 = alloca ptr, align 8
  %10 = alloca ptr, align 8
  store ptr %0, ptr %6, align 8
  store ptr %1, ptr %7, align 8
  store ptr %2, ptr %8, align 8
  store ptr %3, ptr %9, align 8
  store ptr %4, ptr %10, align 8
  %11 = load ptr, ptr %6, align 8
  %12 = getelementptr inbounds nuw %struct._spdu_signal_list_uat, ptr %11, i32 0, i32 12
  %13 = load i32, ptr %12, align 4
  %14 = call noalias ptr (ptr, ptr, ...) @wmem_strdup_printf(ptr noundef null, ptr noundef @.str.235, i32 noundef %13)
  %15 = load ptr, ptr %7, align 8
  store ptr %14, ptr %15, align 8
  %16 = load ptr, ptr %7, align 8
  %17 = load ptr, ptr %16, align 8
  %18 = call i64 @strlen(ptr noundef %17) #15
  %19 = trunc i64 %18 to i32
  %20 = load ptr, ptr %8, align 8
  store i32 %19, ptr %20, align 4
  ret void
}